target datalayout = "e-m:e-p270:32:32-p271:32:32-p272:64:64-i64:64-i128:128-f80:128-n8:16:32:64-S128"
target triple = "x86_64-pc-linux-gnu"

%struct.KVAGHeader = type { i32, i32, i32, i16 }
%struct.AVFormatContext = type { ptr, ptr, ptr, ptr, ptr, i32, i32, ptr, i32, ptr, i32, ptr, ptr, i64, i64, i64, i32, i32, i32, i64, i64, ptr, i32, i32, ptr, i32, i32, i32, i32, ptr, i64, i32, i32, %struct.AVIOInterruptCB, i32, i32, i32, i32, i64, i32, i32, i32, i32, i32, i32, i32, i32, i32, i32, i32, i32, i64, i32, i32, i32, i32, i32, ptr, ptr, ptr, ptr, i32, ptr, ptr, ptr, ptr, i32, ptr, ptr, i64, ptr, ptr, ptr, i64 }
%struct.AVIOInterruptCB = type { ptr, ptr }
%struct.AVStream = type { ptr, i32, i32, ptr, ptr, %struct.AVRational, i64, i64, i64, i32, i32, %struct.AVRational, ptr, %struct.AVRational, %struct.AVPacket, i32, %struct.AVRational, i32 }
%struct.AVPacket = type { ptr, i64, i64, ptr, i32, i32, i32, ptr, i32, i64, i64, ptr, ptr, %struct.AVRational }
%struct.AVRational = type { i32, i32 }
%struct.AVCodecParameters = type { i32, i32, i32, ptr, i32, ptr, i32, i32, i64, i32, i32, i32, i32, i32, i32, %struct.AVRational, %struct.AVRational, i32, i32, i32, i32, i32, i32, i32, %struct.AVChannelLayout, i32, i32, i32, i32, i32, i32 }
%struct.AVChannelLayout = type { i32, i32, %union.anon, ptr }
%union.anon = type { i64 }

; Function Attrs: nounwind uwtable
define internal i32 @kvag_read_header(ptr noundef %0) #0 {
  %2 = alloca i32, align 4
  %3 = alloca ptr, align 8
  %4 = alloca i32, align 4
  %5 = alloca ptr, align 8
  %6 = alloca %struct.KVAGHeader, align 4
  %7 = alloca ptr, align 8
  %8 = alloca [14 x i8], align 1
  %9 = alloca i32, align 4
  store ptr %0, ptr %3, align 8, !tbaa !14
  call void @llvm.lifetime.start.p0(i64 4, ptr %4) #4
  call void @llvm.lifetime.start.p0(i64 8, ptr %5) #4
  call void @llvm.lifetime.start.p0(i64 16, ptr %6) #4
  call void @llvm.lifetime.start.p0(i64 8, ptr %7) #4
  call void @llvm.lifetime.start.p0(i64 14, ptr %8) #4
  %10 = load ptr, ptr %3, align 8, !tbaa !14
  %11 = call ptr @avformat_new_stream(ptr noundef %10, ptr noundef null)
  store ptr %11, ptr %5, align 8, !tbaa !16
  %12 = icmp ne ptr %11, null
  br i1 %12, label %14, label %13

13:                                               ; preds = %1
  store i32 -12, ptr %2, align 4
  store i32 1, ptr %9, align 4
  br label %109

14:                                               ; preds = %1
  %15 = load ptr, ptr %3, align 8, !tbaa !14
  %16 = getelementptr inbounds nuw %struct.AVFormatContext, ptr %15, i32 0, i32 4
  %17 = load ptr, ptr %16, align 8, !tbaa !18
  %18 = getelementptr inbounds [14 x i8], ptr %8, i64 0, i64 0
  %19 = call i32 @ffio_read_size(ptr noundef %17, ptr noundef %18, i32 noundef 14)
  store i32 %19, ptr %4, align 4, !tbaa !33
  %20 = icmp slt i32 %19, 0
  br i1 %20, label %21, label %23

21:                                               ; preds = %14
  %22 = load i32, ptr %4, align 4, !tbaa !33
  store i32 %22, ptr %2, align 4
  store i32 1, ptr %9, align 4
  br label %109

23:                                               ; preds = %14
  %24 = getelementptr inbounds [14 x i8], ptr %8, i64 0, i64 0
  %25 = getelementptr inbounds i8, ptr %24, i64 0
  %26 = load i32, ptr %25, align 1, !tbaa !13
  %27 = getelementptr inbounds nuw %struct.KVAGHeader, ptr %6, i32 0, i32 0
  store i32 %26, ptr %27, align 4, !tbaa !34
  %28 = getelementptr inbounds [14 x i8], ptr %8, i64 0, i64 0
  %29 = getelementptr inbounds i8, ptr %28, i64 4
  %30 = load i32, ptr %29, align 1, !tbaa !13
  %31 = getelementptr inbounds nuw %struct.KVAGHeader, ptr %6, i32 0, i32 1
  store i32 %30, ptr %31, align 4, !tbaa !37
  %32 = getelementptr inbounds [14 x i8], ptr %8, i64 0, i64 0
  %33 = getelementptr inbounds i8, ptr %32, i64 8
  %34 = load i32, ptr %33, align 1, !tbaa !13
  %35 = getelementptr inbounds nuw %struct.KVAGHeader, ptr %6, i32 0, i32 2
  store i32 %34, ptr %35, align 4, !tbaa !38
  %36 = getelementptr inbounds [14 x i8], ptr %8, i64 0, i64 0
  %37 = getelementptr inbounds i8, ptr %36, i64 12
  %38 = load i16, ptr %37, align 1, !tbaa !13
  %39 = getelementptr inbounds nuw %struct.KVAGHeader, ptr %6, i32 0, i32 3
  store i16 %38, ptr %39, align 4, !tbaa !39
  %40 = getelementptr inbounds nuw %struct.KVAGHeader, ptr %6, i32 0, i32 2
  %41 = load i32, ptr %40, align 4, !tbaa !38
  %42 = icmp sle i32 %41, 0
  br i1 %42, label %43, label %44

43:                                               ; preds = %23
  store i32 -1094995529, ptr %2, align 4
  store i32 1, ptr %9, align 4
  br label %109

44:                                               ; preds = %23
  %45 = load ptr, ptr %5, align 8, !tbaa !16
  %46 = getelementptr inbounds nuw %struct.AVStream, ptr %45, i32 0, i32 3
  %47 = load ptr, ptr %46, align 8, !tbaa !40
  store ptr %47, ptr %7, align 8, !tbaa !47
  %48 = load ptr, ptr %7, align 8, !tbaa !47
  %49 = getelementptr inbounds nuw %struct.AVCodecParameters, ptr %48, i32 0, i32 0
  store i32 1, ptr %49, align 8, !tbaa !48
  %50 = load ptr, ptr %7, align 8, !tbaa !47
  %51 = getelementptr inbounds nuw %struct.AVCodecParameters, ptr %50, i32 0, i32 1
  store i32 69675, ptr %51, align 4, !tbaa !51
  %52 = load ptr, ptr %7, align 8, !tbaa !47
  %53 = getelementptr inbounds nuw %struct.AVCodecParameters, ptr %52, i32 0, i32 7
  store i32 1, ptr %53, align 4, !tbaa !52
  %54 = load ptr, ptr %7, align 8, !tbaa !47
  %55 = getelementptr inbounds nuw %struct.AVCodecParameters, ptr %54, i32 0, i32 24
  %56 = getelementptr inbounds nuw %struct.KVAGHeader, ptr %6, i32 0, i32 3
  %57 = load i16, ptr %56, align 4, !tbaa !39
  %58 = icmp ne i16 %57, 0
  %59 = xor i1 %58, true
  %60 = xor i1 %59, true
  %61 = zext i1 %60 to i32
  %62 = add nsw i32 %61, 1
  call void @av_channel_layout_default(ptr noundef %55, i32 noundef %62)
  %63 = getelementptr inbounds nuw %struct.KVAGHeader, ptr %6, i32 0, i32 2
  %64 = load i32, ptr %63, align 4, !tbaa !38
  %65 = load ptr, ptr %7, align 8, !tbaa !47
  %66 = getelementptr inbounds nuw %struct.AVCodecParameters, ptr %65, i32 0, i32 25
  store i32 %64, ptr %66, align 8, !tbaa !53
  %67 = load ptr, ptr %7, align 8, !tbaa !47
  %68 = getelementptr inbounds nuw %struct.AVCodecParameters, ptr %67, i32 0, i32 9
  store i32 4, ptr %68, align 8, !tbaa !54
  %69 = load ptr, ptr %7, align 8, !tbaa !47
  %70 = getelementptr inbounds nuw %struct.AVCodecParameters, ptr %69, i32 0, i32 26
  store i32 1, ptr %70, align 4, !tbaa !55
  %71 = load ptr, ptr %7, align 8, !tbaa !47
  %72 = getelementptr inbounds nuw %struct.AVCodecParameters, ptr %71, i32 0, i32 24
  %73 = getelementptr inbounds nuw %struct.AVChannelLayout, ptr %72, i32 0, i32 1
  %74 = load i32, ptr %73, align 4, !tbaa !56
  %75 = sext i32 %74 to i64
  %76 = load ptr, ptr %7, align 8, !tbaa !47
  %77 = getelementptr inbounds nuw %struct.AVCodecParameters, ptr %76, i32 0, i32 25
  %78 = load i32, ptr %77, align 8, !tbaa !53
  %79 = sext i32 %78 to i64
  %80 = mul i64 %75, %79
  %81 = load ptr, ptr %7, align 8, !tbaa !47
  %82 = getelementptr inbounds nuw %struct.AVCodecParameters, ptr %81, i32 0, i32 9
  %83 = load i32, ptr %82, align 8, !tbaa !54
  %84 = sext i32 %83 to i64
  %85 = mul i64 %80, %84
  %86 = load ptr, ptr %7, align 8, !tbaa !47
  %87 = getelementptr inbounds nuw %struct.AVCodecParameters, ptr %86, i32 0, i32 8
  store i64 %85, ptr %87, align 8, !tbaa !57
  %88 = load ptr, ptr %5, align 8, !tbaa !16
  %89 = load ptr, ptr %7, align 8, !tbaa !47
  %90 = getelementptr inbounds nuw %struct.AVCodecParameters, ptr %89, i32 0, i32 25
  %91 = load i32, ptr %90, align 8, !tbaa !53
  call void @avpriv_set_pts_info(ptr noundef %88, i32 noundef 64, i32 noundef 1, i32 noundef %91)
  %92 = load ptr, ptr %5, align 8, !tbaa !16
  %93 = getelementptr inbounds nuw %struct.AVStream, ptr %92, i32 0, i32 6
  store i64 0, ptr %93, align 8, !tbaa !58
  %94 = getelementptr inbounds nuw %struct.KVAGHeader, ptr %6, i32 0, i32 1
  %95 = load i32, ptr %94, align 4, !tbaa !37
  %96 = load ptr, ptr %7, align 8, !tbaa !47
  %97 = getelementptr inbounds nuw %struct.AVCodecParameters, ptr %96, i32 0, i32 9
  %98 = load i32, ptr %97, align 8, !tbaa !54
  %99 = sdiv i32 8, %98
  %100 = mul i32 %95, %99
  %101 = load ptr, ptr %7, align 8, !tbaa !47
  %102 = getelementptr inbounds nuw %struct.AVCodecParameters, ptr %101, i32 0, i32 24
  %103 = getelementptr inbounds nuw %struct.AVChannelLayout, ptr %102, i32 0, i32 1
  %104 = load i32, ptr %103, align 4, !tbaa !56
  %105 = udiv i32 %100, %104
  %106 = zext i32 %105 to i64
  %107 = load ptr, ptr %5, align 8, !tbaa !16
  %108 = getelementptr inbounds nuw %struct.AVStream, ptr %107, i32 0, i32 7
  store i64 %106, ptr %108, align 8, !tbaa !59
  store i32 0, ptr %2, align 4
  store i32 1, ptr %9, align 4
  br label %109

109:                                              ; preds = %44, %43, %21, %13
  call void @llvm.lifetime.end.p0(i64 14, ptr %8) #4
  call void @llvm.lifetime.end.p0(i64 8, ptr %7) #4
  call void @llvm.lifetime.end.p0(i64 16, ptr %6) #4
  call void @llvm.lifetime.end.p0(i64 8, ptr %5) #4
  call void @llvm.lifetime.end.p0(i64 4, ptr %4) #4
  %110 = load i32, ptr %2, align 4
  ret i32 %110
}