; Function Attrs: nounwind uwtable
define internal range(i32 -2147483648, 1) i32 @kvag_read_header(ptr noundef %0) #1 {
  %2 = alloca [14 x i8], align 1
  call void @llvm.lifetime.start.p0(i64 14, ptr nonnull %2) #4
  %3 = tail call ptr @avformat_new_stream(ptr noundef %0, ptr noundef null) #4
  %.not = icmp eq ptr %3, null
  br i1 %.not, label %42, label %4

4:                                                ; preds = %1
  %5 = getelementptr inbounds nuw i8, ptr %0, i64 32
  %6 = load ptr, ptr %5, align 8, !tbaa !12
  %7 = call i32 @ffio_read_size(ptr noundef %6, ptr noundef nonnull %2, i32 noundef 14) #4
  %8 = icmp slt i32 %7, 0
  br i1 %8, label %42, label %9

9:                                                ; preds = %4
  %10 = getelementptr inbounds nuw i8, ptr %2, i64 8
  %11 = load i32, ptr %10, align 1, !tbaa !11
  %12 = icmp slt i32 %11, 1
  br i1 %12, label %42, label %13

13:                                               ; preds = %9
  %14 = getelementptr inbounds nuw i8, ptr %2, i64 12
  %15 = load i16, ptr %14, align 1, !tbaa !11
  %16 = getelementptr inbounds nuw i8, ptr %2, i64 4
  %17 = load i32, ptr %16, align 1, !tbaa !11
  %18 = getelementptr inbounds nuw i8, ptr %3, i64 16
  %19 = load ptr, ptr %18, align 8, !tbaa !27
  store i32 1, ptr %19, align 8, !tbaa !34
  %20 = getelementptr inbounds nuw i8, ptr %19, i64 4
  store i32 69675, ptr %20, align 4, !tbaa !37
  %21 = getelementptr inbounds nuw i8, ptr %19, i64 44
  store i32 1, ptr %21, align 4, !tbaa !38
  %22 = getelementptr inbounds nuw i8, ptr %19, i64 128
  %.not25 = icmp eq i16 %15, 0
  %23 = select i1 %.not25, i32 1, i32 2
  call void @av_channel_layout_default(ptr noundef nonnull %22, i32 noundef %23) #4
  %24 = getelementptr inbounds nuw i8, ptr %19, i64 152
  store i32 %11, ptr %24, align 8, !tbaa !39
  %25 = getelementptr inbounds nuw i8, ptr %19, i64 56
  store i32 4, ptr %25, align 8, !tbaa !40
  %26 = getelementptr inbounds nuw i8, ptr %19, i64 156
  store i32 1, ptr %26, align 4, !tbaa !41
  %27 = getelementptr inbounds nuw i8, ptr %19, i64 132
  %28 = load i32, ptr %27, align 4, !tbaa !42
  %29 = sext i32 %28 to i64
  %30 = zext nneg i32 %11 to i64
  %31 = shl nuw nsw i64 %30, 2
  %32 = mul i64 %31, %29
  %33 = getelementptr inbounds nuw i8, ptr %19, i64 48
  store i64 %32, ptr %33, align 8, !tbaa !43
  call void @avpriv_set_pts_info(ptr noundef nonnull %3, i32 noundef 64, i32 noundef 1, i32 noundef %11) #4
  %34 = getelementptr inbounds nuw i8, ptr %3, i64 40
  store i64 0, ptr %34, align 8, !tbaa !44
  %35 = load i32, ptr %25, align 8, !tbaa !40
  %36 = sdiv i32 8, %35
  %37 = mul i32 %36, %17
  %38 = load i32, ptr %27, align 4, !tbaa !42
  %39 = udiv i32 %37, %38
  %40 = zext i32 %39 to i64
  %41 = getelementptr inbounds nuw i8, ptr %3, i64 48
  store i64 %40, ptr %41, align 8, !tbaa !45
  br label %42

42:                                               ; preds = %9, %4, %1, %13
  %.0 = phi i32 [ 0, %13 ], [ -12, %1 ], [ %7, %4 ], [ -1094995529, %9 ]
  call void @llvm.lifetime.end.p0(i64 14, ptr nonnull %2) #4
  ret i32 %.0
}